target datalayout = "e-m:e-p270:32:32-p271:32:32-p272:64:64-i64:64-i128:128-f80:128-n8:16:32:64-S128"
target triple = "x86_64-pc-linux-gnu"

%struct.SDL_AtomicInt = type { i32 }
%struct.SDL_Rect = type { i32, i32, i32, i32 }
%struct.SDL_VideoDevice = type { ptr, ptr, ptr, ptr, ptr, ptr, ptr, ptr, ptr, ptr, ptr, ptr, ptr, ptr, ptr, ptr, ptr, ptr, ptr, ptr, ptr, ptr, ptr, ptr, ptr, ptr, ptr, ptr, ptr, ptr, ptr, ptr, ptr, ptr, ptr, ptr, ptr, ptr, ptr, ptr, ptr, ptr, ptr, ptr, ptr, ptr, ptr, ptr, ptr, ptr, ptr, ptr, ptr, ptr, ptr, ptr, ptr, ptr, ptr, ptr, ptr, ptr, ptr, ptr, ptr, ptr, ptr, ptr, ptr, ptr, ptr, ptr, ptr, ptr, ptr, ptr, ptr, ptr, ptr, ptr, ptr, ptr, ptr, ptr, ptr, ptr, ptr, ptr, ptr, ptr, ptr, ptr, ptr, ptr, ptr, ptr, ptr, i64, i8, i8, i8, ptr, i32, ptr, %struct.SDL_Rect, ptr, ptr, i32, ptr, ptr, ptr, ptr, i64, ptr, i8, i32, i32, %struct.anon, ptr, ptr, ptr, ptr, ptr, ptr, %struct.SDL_AtomicInt, %struct.SDL_AtomicInt, i8, %struct.anon.0, ptr, ptr, ptr, ptr, ptr }
%struct.anon = type { i32, i32, i32, i32, i32, i32, i32, i32, i32, i32, i32, i32, i32, i32, i32, i32, i32, i32, i32, i32, i32, i32, i32, i32, i32, i32, i32, i32, i32, [256 x i8], ptr }
%struct.anon.0 = type { ptr, ptr, i32, [256 x i8], ptr }

@.str.1 = private unnamed_addr constant [41 x i8] c"Video subsystem has not been initialized\00", align 1
@.str.2 = private unnamed_addr constant [26 x i8] c"Parameter '%s' is invalid\00", align 1
@_this = internal global ptr null, align 8
@.str.86 = private unnamed_addr constant [9 x i8] c"interval\00", align 1
@.str.87 = private unnamed_addr constant [16 x i8] c"no video driver\00", align 1
@.str.88 = private unnamed_addr constant [19 x i8] c"no current context\00", align 1
@.str.89 = private unnamed_addr constant [16 x i8] c"not implemented\00", align 1

; Function Attrs: nounwind uwtable
define hidden zeroext i1 @SDL_UninitializedVideo() #0 {
  %1 = call zeroext i1 (ptr, ...) @SDL_SetError_REAL(ptr noundef @.str.1)
  ret i1 %1
}

; Function Attrs: nounwind uwtable
define hidden ptr @SDL_GL_GetCurrentContext_REAL() #0 {
  %1 = alloca ptr, align 8
  %2 = load ptr, ptr @_this, align 8
  %3 = icmp ne ptr %2, null
  br i1 %3, label %6, label %4

4:                                                ; preds = %0
  %5 = call zeroext i1 @SDL_UninitializedVideo()
  store ptr null, ptr %1, align 8
  br label %10

6:                                                ; preds = %0
  %7 = load ptr, ptr @_this, align 8
  %8 = getelementptr inbounds nuw %struct.SDL_VideoDevice, ptr %7, i32 0, i32 125
  %9 = call ptr @SDL_GetTLS_REAL(ptr noundef %8)
  store ptr %9, ptr %1, align 8
  br label %10

10:                                               ; preds = %6, %4
  %11 = load ptr, ptr %1, align 8
  ret ptr %11
}

; Function Attrs: nounwind uwtable
define hidden zeroext i1 @SDL_GL_GetSwapInterval_REAL(ptr noundef %0) #0 {
  %2 = alloca i1, align 1
  %3 = alloca ptr, align 8
  store ptr %0, ptr %3, align 8
  %4 = load ptr, ptr %3, align 8
  %5 = icmp ne ptr %4, null
  br i1 %5, label %8, label %6

6:                                                ; preds = %1
  %7 = call zeroext i1 (ptr, ...) @SDL_SetError_REAL(ptr noundef @.str.2, ptr noundef @.str.86)
  store i1 %7, ptr %2, align 1
  br label %33

8:                                                ; preds = %1
  %9 = load ptr, ptr %3, align 8
  store i32 0, ptr %9, align 4
  %10 = load ptr, ptr @_this, align 8
  %11 = icmp ne ptr %10, null
  br i1 %11, label %14, label %12

12:                                               ; preds = %8
  %13 = call zeroext i1 (ptr, ...) @SDL_SetError_REAL(ptr noundef @.str.87)
  store i1 %13, ptr %2, align 1
  br label %33

14:                                               ; preds = %8
  %15 = call ptr @SDL_GL_GetCurrentContext_REAL()
  %16 = icmp eq ptr %15, null
  br i1 %16, label %17, label %19

17:                                               ; preds = %14
  %18 = call zeroext i1 (ptr, ...) @SDL_SetError_REAL(ptr noundef @.str.88)
  store i1 %18, ptr %2, align 1
  br label %33

19:                                               ; preds = %14
  %20 = load ptr, ptr @_this, align 8
  %21 = getelementptr inbounds nuw %struct.SDL_VideoDevice, ptr %20, i32 0, i32 57
  %22 = load ptr, ptr %21, align 8
  %23 = icmp ne ptr %22, null
  br i1 %23, label %24, label %31

24:                                               ; preds = %19
  %25 = load ptr, ptr @_this, align 8
  %26 = getelementptr inbounds nuw %struct.SDL_VideoDevice, ptr %25, i32 0, i32 57
  %27 = load ptr, ptr %26, align 8
  %28 = load ptr, ptr @_this, align 8
  %29 = load ptr, ptr %3, align 8
  %30 = call zeroext i1 %27(ptr noundef %28, ptr noundef %29)
  store i1 %30, ptr %2, align 1
  br label %33

31:                                               ; preds = %19
  %32 = call zeroext i1 (ptr, ...) @SDL_SetError_REAL(ptr noundef @.str.89)
  store i1 %32, ptr %2, align 1
  br label %33

33:                                               ; preds = %31, %24, %17, %12, %6
  %34 = load i1, ptr %2, align 1
  ret i1 %34
}