; Function Attrs: nounwind uwtable
define hidden zeroext i1 @SDL_GL_GetSwapInterval_REAL(ptr noundef %0) local_unnamed_addr #0 {
  %.not = icmp eq ptr %0, null
  br i1 %.not, label %2, label %4

2:                                                ; preds = %1
  %3 = tail call zeroext i1 (ptr, ...) @SDL_SetError_REAL(ptr noundef nonnull @.str.2, ptr noundef nonnull @.str.86) #19
  br label %21

4:                                                ; preds = %1
  store i32 0, ptr %0, align 4
  %5 = load ptr, ptr @_this, align 8
  %.not6 = icmp eq ptr %5, null
  br i1 %.not6, label %6, label %SDL_GL_GetCurrentContext_REAL.exit

6:                                                ; preds = %4
  %7 = tail call zeroext i1 (ptr, ...) @SDL_SetError_REAL(ptr noundef nonnull @.str.87) #19
  br label %21

SDL_GL_GetCurrentContext_REAL.exit:               ; preds = %4
  %8 = getelementptr inbounds nuw i8, ptr %5, i64 1356
  %9 = tail call ptr @SDL_GetTLS_REAL(ptr noundef nonnull %8) #19
  %10 = icmp eq ptr %9, null
  br i1 %10, label %11, label %13

11:                                               ; preds = %SDL_GL_GetCurrentContext_REAL.exit
  %12 = tail call zeroext i1 (ptr, ...) @SDL_SetError_REAL(ptr noundef nonnull @.str.88) #19
  br label %21

13:                                               ; preds = %SDL_GL_GetCurrentContext_REAL.exit
  %14 = load ptr, ptr @_this, align 8
  %15 = getelementptr inbounds nuw i8, ptr %14, i64 456
  %16 = load ptr, ptr %15, align 8
  %.not7 = icmp eq ptr %16, null
  br i1 %.not7, label %19, label %17

17:                                               ; preds = %13
  %18 = tail call zeroext i1 %16(ptr noundef nonnull %14, ptr noundef nonnull %0) #19
  br label %21

19:                                               ; preds = %13
  %20 = tail call zeroext i1 (ptr, ...) @SDL_SetError_REAL(ptr noundef nonnull @.str.89) #19
  br label %21

21:                                               ; preds = %19, %17, %11, %6, %2
  %.0 = phi i1 [ %12, %11 ], [ %18, %17 ], [ %20, %19 ], [ %7, %6 ], [ %3, %2 ]
  ret i1 %.0
}